Certificate:
    Data:
        Version: 3 (0x2)
        Serial Number: 1 (0x1)
        Signature Algorithm: sha1WithRSAEncryption
        Issuer: C=BA, ST=Republika Srpska, L=Banja Luka, O=Ognjen Inc., OU=Ognjen Research, CN=Ognjen Klincov/emailAddress=ognjenkl@gmail.com
        Validity
            Not Before: May 22 19:46:13 2016 GMT
            Not After : May 17 19:46:13 2036 GMT
        Subject: C=BA, ST=Republika Srpska, O=Ognjen Inc., OU=Ognjen Research, CN=Ognjen Klincov/emailAddress=ognjenkl@gmail.com
        Subject Public Key Info:
            Public Key Algorithm: rsaEncryption
                Public-Key: (4096 bit)
                Modulus:
                    00:99:9c:f1:15:8e:23:f2:91:2f:72:01:9b:b6:58:
                    5a:f1:d1:86:80:dd:53:88:d6:1c:27:64:36:15:77:
                    49:b0:77:87:e6:12:6f:5a:22:d5:5e:40:21:18:a2:
                    ba:37:62:79:b8:f9:f5:9d:9d:86:44:5f:e8:d5:05:
                    60:62:13:57:a8:47:71:7c:36:dc:2d:9b:9d:3f:40:
                    67:b6:05:ea:f3:36:fd:98:71:88:a9:50:43:5d:8f:
                    4f:a9:e8:ed:7e:b3:e9:cf:ff:f0:ce:47:97:e9:3b:
                    cd:50:c0:0c:b2:b5:b2:4d:1a:d4:60:18:3e:43:eb:
                    54:25:c2:37:70:0e:1f:41:f9:29:cc:9a:c1:5f:42:
                    20:4f:bc:40:65:e3:ad:3c:02:d3:96:48:fe:38:08:
                    38:0e:dd:5f:cd:ac:b9:13:f8:95:42:6a:5d:f4:45:
                    30:af:f7:98:e2:78:27:d5:4d:52:df:35:73:b8:a4:
                    0e:9f:cf:8a:1c:af:b7:19:d5:ea:25:d5:5d:ed:3d:
                    f9:9d:66:81:4b:f1:1d:50:65:74:ff:25:f9:a0:7d:
                    1b:e4:89:4d:7f:87:a2:59:23:c9:6f:47:64:59:a3:
                    e5:99:c8:57:7c:c2:32:b1:48:c1:d2:83:b7:a8:ee:
                    ee:f6:a8:ab:23:c2:34:46:db:b6:04:e2:0f:38:5c:
                    7a:35:47:3a:d1:5b:b1:87:4b:00:b4:78:e0:88:8a:
                    88:cd:0e:b0:fb:26:95:13:97:d1:5d:08:75:93:6b:
                    4b:12:ef:9d:70:ec:38:ca:7e:98:08:b1:f3:1b:d0:
                    f1:8f:57:dc:a6:e9:20:2b:ad:9f:3b:23:93:65:e4:
                    d7:cd:3b:7f:d7:a0:72:64:d9:98:11:10:a2:1e:8a:
                    1e:34:8a:c7:1b:a0:03:71:92:21:06:85:38:58:77:
                    bd:54:12:72:05:ba:f9:2b:a4:63:f2:ca:ff:e6:9d:
                    68:22:0b:3d:ff:0f:47:60:a2:ab:60:52:9f:d3:50:
                    24:ff:32:09:4f:ca:a6:48:da:a6:f5:ac:13:eb:74:
                    d6:b0:0d:32:ea:8c:d7:59:d5:3f:ed:2d:00:04:70:
                    29:1c:b9:aa:51:2e:01:97:c2:ee:38:a1:cb:76:d6:
                    65:fe:bb:74:97:1f:27:e2:73:04:c5:52:6b:5f:12:
                    8d:87:ba:e2:46:5d:26:53:c4:72:b1:ab:62:57:6a:
                    05:3c:11:50:d3:51:95:90:36:6f:01:be:d0:45:10:
                    a5:b2:02:15:26:2f:75:23:d2:98:00:47:09:76:a4:
                    a6:e5:3f:cf:c1:40:7f:0a:af:09:96:20:b8:a2:f4:
                    c0:8c:f1:4d:b4:ba:8e:5a:92:39:6a:d1:bc:b2:b5:
                    fa:d6:1d
                Exponent: 65537 (0x10001)
        X509v3 extensions:
            X509v3 Basic Constraints: 
                CA:TRUE
            Netscape Comment: 
                OpenSSL Generated Certificate
            X509v3 Subject Key Identifier: 
                44:76:36:3D:67:08:B4:A3:EA:6B:F0:E2:91:CE:E1:03:67:4A:E5:43
            X509v3 Authority Key Identifier: 
                keyid:0D:DC:B8:A3:D1:78:C6:46:02:6A:21:E7:85:03:F2:CA:10:90:9E:08

    Signature Algorithm: sha1WithRSAEncryption
        7e:5e:a1:03:03:cf:ee:6a:47:7e:9f:f2:dd:bb:a9:5d:0f:7f:
        cc:0e:ff:a7:d6:e4:0a:3b:bb:57:a9:09:10:08:2f:48:b9:aa:
        2c:90:a0:d0:f3:c7:f1:45:2e:1d:b3:ff:d3:61:76:96:88:64:
        04:d9:fd:ba:f4:d8:c0:7b:cc:2c:38:11:9b:8f:06:3e:aa:b7:
        e2:1a:d6:96:07:85:f6:d3:b4:ec:7c:6d:e9:b8:28:cc:11:88:
        59:3c:d6:17:74:90:fc:a3:2d:37:b2:1e:17:3e:7e:cf:e2:34:
        88:5d:5a:dc:e4:5e:18:da:86:4d:44:ba:87:01:ab:ad:00:9e:
        f3:e6:2c:9a:e3:c7:12:6e:e1:bd:20:03:95:85:3d:03:d4:e1:
        a8:41:13:78:ad:d9:96:49:55:6b:1b:48:4c:b0:54:36:a5:bf:
        d9:87:07:f4:fc:d8:f5:69:b7:07:70:dd:04:8a:7e:cd:58:63:
        a2:4e:0c:d1:fe:86:22:05:3b:b2:35:7b:3c:cc:ff:3a:5c:6a:
        5a:2c:58:8d:43:73:e6:af:f5:0c:4e:a9:82:a3:00:f9:da:73:
        82:5e:dd:f5:12:0c:e3:67:5d:73:58:d9:7b:e5:3e:e5:40:46:
        e3:2c:40:77:f5:50:5e:e7:69:69:a2:6e:a4:87:1f:0f:4f:82:
        82:61:fb:85:b6:c7:00:9c:18:8c:65:63:38:4a:b9:5f:4b:e6:
        23:1c:0b:de:59:84:13:0d:9e:ec:83:50:5f:b6:99:ab:90:70:
        e7:b2:e8:71:e3:2e:c3:33:db:7e:3c:e1:4f:b0:26:fa:2b:c7:
        61:3f:8e:ea:5b:14:18:d6:62:1a:f0:b3:22:f0:83:79:ce:04:
        2a:58:16:2f:ec:57:ad:c4:52:42:e9:a1:09:e1:f4:a5:1c:9f:
        fa:1e:9b:76:02:d6:6d:bf:27:7c:a8:fb:c8:ad:8f:7c:9e:ef:
        90:19:7c:85:61:d0:42:87:0b:26:01:ec:24:31:cc:fe:01:f5:
        f6:fa:ae:12:1e:35:83:91:03:dd:e2:a8:01:8e:97:ad:c7:52:
        12:36:3b:a9:f8:5a:06:b5:df:9d:a8:75:06:f3:3a:be:07:c8:
        7a:1d:fa:06:d4:0a:4f:43:c3:bb:a6:64:41:b3:ad:45:60:b7:
        03:dd:2e:a4:2a:66:ab:54:b7:e5:41:45:0c:85:63:92:44:1d:
        5c:98:78:35:73:a2:08:af:f2:1c:b3:87:c9:e5:41:66:cf:cc:
        79:41:54:32:d2:7e:7f:2c:5b:58:67:7a:4b:31:30:d0:81:fa:
        85:d0:96:c3:27:bd:99:73:53:32:07:71:b3:b5:60:4b:e3:41:
        cd:4a:20:4d:41:15:aa:5b:08:2d:5b:06:26:f3:82:e6:a0:0e:
        62:63:99:36:05:72:55:bd:f9:74:30:a2:cc:10:9f:da:37:49:
        fe:0c:2c:5c:d8:95:f6:49:99:9e:a9:ad:e2:8d:39:9b:20:49:
        d0:e6:fd:c9:b0:1a:ac:05:e2:cb:83:f4:7a:50:f8:51:2e:f5:
        3d:78:ee:25:34:27:02:3f:ec:d2:f8:bc:96:99:36:d1:00:a9:
        b6:4f:56:40:66:87:13:5d:fa:58:12:12:6a:d5:b5:0f:50:46:
        94:43:d8:b5:ba:b2:f2:67:58:b7:26:ad:c8:16:6d:ad:8c:b9:
        d1:a9:6d:77:d9:c5:88:1c:d3:2c:fa:72:87:31:06:c3:0e:ec:
        d0:8c:aa:8d:5a:63:94:eb:ef:a8:60:d6:f6:28:6b:90:75:65:
        5e:cc:26:d7:bb:dc:67:30:a5:5f:94:86:01:bd:5f:ee:91:fc:
        59:d3:f4:2d:e3:8c:66:53:09:70:23:51:7c:00:83:21:ee:0b:
        6b:a2:d3:5b:b7:4d:6f:1d:c5:79:0d:d3:90:05:da:4a:ff:52:
        9a:f6:a0:2e:7d:52:79:28:63:bc:5a:25:5d:60:ee:87:19:f2:
        90:2d:02:5f:2a:48:7b:34:f4:0d:77:f1:da:8b:56:01:64:49:
        08:43:b5:bf:6c:10:8d:88:98:b3:55:47:d2:63:57:d1:2a:35:
        e4:37:3e:16:f5:d6:37:35:c8:df:a2:64:80:9d:14:c3:c3:57:
        f1:79:ce:0e:3b:3b:f9:5c:90:02:b8:31:43:c6:02:fe:3f:28:
        ef:c6:cb:d9:34:5f:85:6a:2f:2e:ad:fe:22:0c:9f:b6:6c:a1:
        26:1f:8a:39:36:a5:ec:02:51:c3:a7:51:1f:06:e0:ba:1e:05:
        3f:8d:74:57:04:78:72:6d:f1:d3:05:90:c1:29:bb:97:cc:0a:
        ed:74:99:9b:76:85:10:71:58:ca:26:5c:70:90:b7:fb:fe:37:
        a9:32:bc:a0:20:87:f2:00:91:44:c6:62:41:09:49:83:87:52:
        2c:c8:3c:ac:c7:78:af:0a:33:af:e9:ec:96:a6:ad:25:d5:86:
        71:cd:d3:cf:97:64:69:38:ee:fa:e9:18:48:75:4e:de:ea:b5:
        bd:a9:f3:c7:a5:be:7b:a5:6f:31:9a:25:8f:05:23:d0:c1:2d:
        76:f9:57:5f:23:4e:e3:91:20:8e:d1:fb:db:d1:5d:a1:b7:b6:
        f4:df:ca:7b:39:21:d9:b9:7c:e7:74:c9:65:05:af:41:bb:85:
        3f:e4:5a:a2:60:d9:22:27:09:d8:51:ca:69:81:ba:9d:71:f9:
        cc:18:e0:37:78:81:43:fa:96:80:4d:b5:a2:7f:68:73
-----BEGIN CERTIFICATE-----
MIIIODCCBCCgAwIBAgIBATANBgkqhkiG9w0BAQUFADCBqTELMAkGA1UEBhMCQkEx
GTAXBgNVBAgMEFJlcHVibGlrYSBTcnBza2ExEzARBgNVBAcMCkJhbmphIEx1a2Ex
FDASBgNVBAoMC09nbmplbiBJbmMuMRgwFgYDVQQLDA9PZ25qZW4gUmVzZWFyY2gx
FzAVBgNVBAMMDk9nbmplbiBLbGluY292MSEwHwYJKoZIhvcNAQkBFhJvZ25qZW5r
bEBnbWFpbC5jb20wHhcNMTYwNTIyMTk0NjEzWhcNMzYwNTE3MTk0NjEzWjCBlDEL
MAkGA1UEBhMCQkExGTAXBgNVBAgMEFJlcHVibGlrYSBTcnBza2ExFDASBgNVBAoM
C09nbmplbiBJbmMuMRgwFgYDVQQLDA9PZ25qZW4gUmVzZWFyY2gxFzAVBgNVBAMM
Dk9nbmplbiBLbGluY292MSEwHwYJKoZIhvcNAQkBFhJvZ25qZW5rbEBnbWFpbC5j
b20wggIiMA0GCSqGSIb3DQEBAQUAA4ICDwAwggIKAoICAQCZnPEVjiPykS9yAZu2
WFrx0YaA3VOI1hwnZDYVd0mwd4fmEm9aItVeQCEYoro3Ynm4+fWdnYZEX+jVBWBi
E1eoR3F8Ntwtm50/QGe2BerzNv2YcYipUENdj0+p6O1+s+nP//DOR5fpO81QwAyy
tbJNGtRgGD5D61QlwjdwDh9B+SnMmsFfQiBPvEBl4608AtOWSP44CDgO3V/NrLkT
+JVCal30RTCv95jieCfVTVLfNXO4pA6fz4ocr7cZ1eol1V3tPfmdZoFL8R1QZXT/
JfmgfRvkiU1/h6JZI8lvR2RZo+WZyFd8wjKxSMHSg7eo7u72qKsjwjRG27YE4g84
XHo1RzrRW7GHSwC0eOCIiojNDrD7JpUTl9FdCHWTa0sS751w7DjKfpgIsfMb0PGP
V9ym6SArrZ87I5Nl5NfNO3/XoHJk2ZgREKIeih40iscboANxkiEGhThYd71UEnIF
uvkrpGPyyv/mnWgiCz3/D0dgoqtgUp/TUCT/MglPyqZI2qb1rBPrdNawDTLqjNdZ
1T/tLQAEcCkcuapRLgGXwu44oct21mX+u3SXHyficwTFUmtfEo2HuuJGXSZTxHKx
q2JXagU8EVDTUZWQNm8BvtBFEKWyAhUmL3Uj0pgARwl2pKblP8/BQH8KrwmWILii
9MCM8U20uo5akjlq0byytfrWHQIDAQABo34wfDAMBgNVHRMEBTADAQH/MCwGCWCG
SAGG+EIBDQQfFh1PcGVuU1NMIEdlbmVyYXRlZCBDZXJ0aWZpY2F0ZTAdBgNVHQ4E
FgQURHY2PWcItKPqa/Dikc7hA2dK5UMwHwYDVR0jBBgwFoAUDdy4o9F4xkYCaiHn
hQPyyhCQnggwDQYJKoZIhvcNAQEFBQADggQBAH5eoQMDz+5qR36f8t27qV0Pf8wO
/6fW5Ao7u1epCRAIL0i5qiyQoNDzx/FFLh2z/9NhdpaIZATZ/br02MB7zCw4EZuP
Bj6qt+Ia1pYHhfbTtOx8bem4KMwRiFk81hd0kPyjLTeyHhc+fs/iNIhdWtzkXhja
hk1EuocBq60AnvPmLJrjxxJu4b0gA5WFPQPU4ahBE3it2ZZJVWsbSEywVDalv9mH
B/T82PVptwdw3QSKfs1YY6JODNH+hiIFO7I1ezzM/zpcalosWI1Dc+av9QxOqYKj
APnac4Je3fUSDONnXXNY2XvlPuVARuMsQHf1UF7naWmibqSHHw9PgoJh+4W2xwCc
GIxlYzhKuV9L5iMcC95ZhBMNnuyDUF+2mauQcOey6HHjLsMz23484U+wJvorx2E/
jupbFBjWYhrwsyLwg3nOBCpYFi/sV63EUkLpoQnh9KUcn/oem3YC1m2/J3yo+8it
j3ye75AZfIVh0EKHCyYB7CQxzP4B9fb6rhIeNYORA93iqAGOl63HUhI2O6n4Wga1
352odQbzOr4HyHod+gbUCk9Dw7umZEGzrUVgtwPdLqQqZqtUt+VBRQyFY5JEHVyY
eDVzogiv8hyzh8nlQWbPzHlBVDLSfn8sW1hneksxMNCB+oXQlsMnvZlzUzIHcbO1
YEvjQc1KIE1BFapbCC1bBibzguagDmJjmTYFclW9+XQwoswQn9o3Sf4MLFzYlfZJ
mZ6preKNOZsgSdDm/cmwGqwF4suD9HpQ+FEu9T147iU0JwI/7NL4vJaZNtEAqbZP
VkBmhxNd+lgSEmrVtQ9QRpRD2LW6svJnWLcmrcgWba2MudGpbXfZxYgc0yz6cocx
BsMO7NCMqo1aY5Tr76hg1vYoa5B1ZV7MJte73GcwpV+UhgG9X+6R/FnT9C3jjGZT
CXAjUXwAgyHuC2ui01u3TW8dxXkN05AF2kr/Upr2oC59UnkoY7xaJV1g7ocZ8pAt
Al8qSHs09A138dqLVgFkSQhDtb9sEI2ImLNVR9JjV9EqNeQ3Phb11jc1yN+iZICd
FMPDV/F5zg47O/lckAK4MUPGAv4/KO/Gy9k0X4VqLy6t/iIMn7ZsoSYfijk2pewC
UcOnUR8G4LoeBT+NdFcEeHJt8dMFkMEpu5fMCu10mZt2hRBxWMomXHCQt/v+N6ky
vKAgh/IAkUTGYkEJSYOHUizIPKzHeK8KM6/p7JamrSXVhnHN08+XZGk47vrpGEh1
Tt7qtb2p88elvnulbzGaJY8FI9DBLXb5V18jTuORII7R+9vRXaG3tvTfyns5Idm5
fOd0yWUFr0G7hT/kWqJg2SInCdhRymmBup1x+cwY4Dd4gUP6loBNtaJ/aHM=
-----END CERTIFICATE-----
