Certificate:
    Data:
        Version: 3 (0x2)
        Serial Number: 2 (0x2)
        Signature Algorithm: sha1WithRSAEncryption
        Issuer: C=BA, ST=Republika Srpska, O=Ognjen Inc., OU=Ognjen Research, CN=Ognjen Klincov/emailAddress=ognjenkl@gmail.com
        Validity
            Not Before: May 22 20:20:52 2016 GMT
            Not After : May 22 20:20:52 2017 GMT
        Subject: C=BA, ST=Republika Srpska, O=Ognjen Inc., CN=Dragisa/emailAddress=dragisa.stjepanovic@gmail.com
        Subject Public Key Info:
            Public Key Algorithm: rsaEncryption
                Public-Key: (1024 bit)
                Modulus:
                    00:c3:2b:e8:f9:04:63:37:d2:11:69:26:f9:a9:e4:
                    dc:65:ee:dd:9d:f4:63:42:92:51:fe:fd:97:81:c9:
                    6d:65:e4:12:90:c4:fa:ec:fa:71:ec:82:88:bb:e4:
                    4f:a9:35:60:95:b8:93:f0:77:c9:5b:54:be:e5:a6:
                    0a:c6:38:00:5c:30:71:5f:4f:16:a9:a4:37:ea:b0:
                    2c:75:df:0a:cf:6b:cf:f6:ed:10:e9:02:e2:f3:a7:
                    fa:fa:87:82:82:3a:bf:9f:d0:f8:06:c0:9b:b0:66:
                    56:d7:fc:82:cb:c5:b0:3f:e1:3c:32:0a:fd:9d:44:
                    84:90:27:ed:ae:0e:20:70:f5
                Exponent: 65537 (0x10001)
        X509v3 extensions:
            X509v3 Basic Constraints: 
                CA:FALSE
            Netscape Comment: 
                OpenSSL Generated Certificate
            X509v3 Subject Key Identifier: 
                46:A8:21:6A:DF:37:11:FD:C6:E6:8D:01:F2:50:D3:A7:59:11:61:9D
            X509v3 Authority Key Identifier: 
                keyid:44:76:36:3D:67:08:B4:A3:EA:6B:F0:E2:91:CE:E1:03:67:4A:E5:43

    Signature Algorithm: sha1WithRSAEncryption
        97:c3:6b:4a:95:6b:5f:6a:d5:dd:43:72:c6:9f:23:be:4f:3a:
        f0:8f:4a:c5:ed:44:20:d5:34:ba:39:68:1c:4e:38:84:ba:81:
        e8:03:4c:16:5d:a6:66:88:1a:fb:58:ba:18:99:ac:32:7f:5d:
        74:96:74:72:98:99:e6:d9:7e:34:cf:a3:48:e4:a7:6d:ea:fb:
        c4:cf:5a:8f:b5:c1:d3:5e:a2:2b:50:80:1e:1f:dd:fe:10:e5:
        3f:58:67:76:b5:04:7e:6c:73:b7:0e:16:86:e6:f6:60:da:db:
        c5:ab:77:3c:77:23:4f:57:bc:25:33:97:6b:1f:22:1b:07:75:
        a7:4a:61:17:5f:30:6f:c4:f4:10:38:1e:75:cd:8c:c4:71:8c:
        67:e9:4a:f6:5c:90:cc:59:83:ae:73:aa:11:5e:cf:ef:1e:31:
        a5:14:3b:25:88:51:31:2b:a1:d2:7e:13:4a:69:ba:02:76:28:
        9f:03:01:7e:8f:af:4a:04:a7:eb:12:42:29:6a:a6:69:48:4f:
        fc:dc:75:f2:2d:ed:e4:d0:6e:c8:00:9a:56:48:8b:f6:ed:dc:
        81:6c:b5:5a:bd:17:df:10:d1:0b:c1:88:33:ef:ca:a7:c6:66:
        d6:52:83:69:b4:f4:f0:db:35:7b:88:67:7b:a0:3d:c1:eb:a4:
        6a:ea:d0:ef:9d:ee:95:45:cd:2d:ab:42:ec:c4:a7:a7:14:6e:
        37:94:a1:4a:9d:90:fe:d7:3f:ff:c8:3d:3a:9b:7b:a1:d3:df:
        a9:d5:3c:de:51:d1:08:0b:49:54:31:92:67:39:85:02:13:fe:
        89:f3:5c:83:ee:d3:bc:40:61:46:d0:65:80:34:00:80:be:a7:
        08:91:25:b5:ad:c5:72:be:1f:9f:2a:f3:31:d8:91:53:ae:44:
        54:80:65:80:94:aa:5b:ad:2b:cd:45:28:c0:41:1e:5b:39:35:
        55:86:06:c3:2b:6a:1b:06:90:e5:e4:f6:ea:ad:e0:d9:ac:88:
        23:f6:51:34:f4:a8:9f:d6:04:f3:c4:10:7b:99:3c:fc:f0:5e:
        48:81:df:2a:3e:fa:fe:4b:fd:1a:76:62:e9:72:f3:8f:6a:8b:
        cd:c4:70:1f:93:4b:51:a4:22:41:86:dd:df:98:3a:bb:6e:70:
        4b:85:28:e6:c5:2c:26:60:32:3d:d2:96:db:77:ef:79:28:52:
        b8:25:d5:d1:87:f5:c6:26:8d:23:8f:8c:40:f8:3f:cb:08:dc:
        d2:ae:fc:81:1f:0a:58:c9:af:e2:2b:03:f7:e1:c2:94:3d:ee:
        2b:20:a9:6a:92:e7:f0:30:52:59:26:27:3c:c4:80:10:e9:d2:
        3c:72:4a:8d:a0:4d:9c:f4
-----BEGIN CERTIFICATE-----
MIIEhTCCAm2gAwIBAgIBAjANBgkqhkiG9w0BAQUFADCBlDELMAkGA1UEBhMCQkEx
GTAXBgNVBAgMEFJlcHVibGlrYSBTcnBza2ExFDASBgNVBAoMC09nbmplbiBJbmMu
MRgwFgYDVQQLDA9PZ25qZW4gUmVzZWFyY2gxFzAVBgNVBAMMDk9nbmplbiBLbGlu
Y292MSEwHwYJKoZIhvcNAQkBFhJvZ25qZW5rbEBnbWFpbC5jb20wHhcNMTYwNTIy
MjAyMDUyWhcNMTcwNTIyMjAyMDUyWjB+MQswCQYDVQQGEwJCQTEZMBcGA1UECAwQ
UmVwdWJsaWthIFNycHNrYTEUMBIGA1UECgwLT2duamVuIEluYy4xEDAOBgNVBAMM
B0RyYWdpc2ExLDAqBgkqhkiG9w0BCQEWHWRyYWdpc2Euc3RqZXBhbm92aWNAZ21h
aWwuY29tMIGfMA0GCSqGSIb3DQEBAQUAA4GNADCBiQKBgQDDK+j5BGM30hFpJvmp
5Nxl7t2d9GNCklH+/ZeByW1l5BKQxPrs+nHsgoi75E+pNWCVuJPwd8lbVL7lpgrG
OABcMHFfTxappDfqsCx13wrPa8/27RDpAuLzp/r6h4KCOr+f0PgGwJuwZlbX/ILL
xbA/4TwyCv2dRISQJ+2uDiBw9QIDAQABo3sweTAJBgNVHRMEAjAAMCwGCWCGSAGG
+EIBDQQfFh1PcGVuU1NMIEdlbmVyYXRlZCBDZXJ0aWZpY2F0ZTAdBgNVHQ4EFgQU
Rqghat83Ef3G5o0B8lDTp1kRYZ0wHwYDVR0jBBgwFoAURHY2PWcItKPqa/Dikc7h
A2dK5UMwDQYJKoZIhvcNAQEFBQADggIBAJfDa0qVa19q1d1DcsafI75POvCPSsXt
RCDVNLo5aBxOOIS6gegDTBZdpmaIGvtYuhiZrDJ/XXSWdHKYmebZfjTPo0jkp23q
+8TPWo+1wdNeoitQgB4f3f4Q5T9YZ3a1BH5sc7cOFobm9mDa28Wrdzx3I09XvCUz
l2sfIhsHdadKYRdfMG/E9BA4HnXNjMRxjGfpSvZckMxZg65zqhFez+8eMaUUOyWI
UTErodJ+E0ppugJ2KJ8DAX6Pr0oEp+sSQilqpmlIT/zcdfIt7eTQbsgAmlZIi/bt
3IFstVq9F98Q0QvBiDPvyqfGZtZSg2m09PDbNXuIZ3ugPcHrpGrq0O+d7pVFzS2r
QuzEp6cUbjeUoUqdkP7XP//IPTqbe6HT36nVPN5R0QgLSVQxkmc5hQIT/onzXIPu
07xAYUbQZYA0AIC+pwiRJbWtxXK+H58q8zHYkVOuRFSAZYCUqlutK81FKMBBHls5
NVWGBsMrahsGkOXk9uqt4NmsiCP2UTT0qJ/WBPPEEHuZPPzwXkiB3yo++v5L/Rp2
Yuly849qi83EcB+TS1GkIkGG3d+YOrtucEuFKObFLCZgMj3Sltt373koUrgl1dGH
9cYmjSOPjED4P8sI3NKu/IEfCljJr+IrA/fhwpQ97isgqWqS5/AwUlkmJzzEgBDp
0jxySo2gTZz0
-----END CERTIFICATE-----
