Certificate:
    Data:
        Version: 3 (0x2)
        Serial Number: 3 (0x3)
        Signature Algorithm: sha1WithRSAEncryption
        Issuer: C=BA, ST=Republika Srpska, O=Ognjen Inc., OU=Ognjen Research, CN=Ognjen Klincov/emailAddress=ognjenkl@gmail.com
        Validity
            Not Before: May 22 20:48:07 2016 GMT
            Not After : May 22 20:48:07 2017 GMT
        Subject: C=BA, ST=Republika Srpska, O=Ognjen Inc., CN=Irena/emailAddress=anericiv@gmail.com
        Subject Public Key Info:
            Public Key Algorithm: rsaEncryption
                Public-Key: (1024 bit)
                Modulus:
                    00:a7:cb:c5:2e:c5:4b:aa:c8:f9:06:36:1a:7f:43:
                    c5:da:86:9a:40:b6:8a:06:ca:09:b9:26:91:78:1f:
                    81:e5:bb:83:d5:e7:e4:11:69:c0:ba:7b:b5:fe:c5:
                    10:56:19:0d:19:92:57:44:97:52:74:0b:03:8c:db:
                    94:1a:8b:e0:86:ba:ac:73:fa:c8:bc:b7:0d:dd:26:
                    8b:c9:38:90:7d:27:6d:35:35:34:46:fd:7d:cf:ca:
                    ad:91:70:36:ca:74:70:31:04:25:37:be:b9:4d:69:
                    18:6f:19:5e:ef:a0:f9:c2:b3:34:6a:cb:18:16:d2:
                    fb:bc:84:d8:1a:65:b0:5f:3f
                Exponent: 65537 (0x10001)
        X509v3 extensions:
            X509v3 Basic Constraints: 
                CA:FALSE
            Netscape Comment: 
                OpenSSL Generated Certificate
            X509v3 Subject Key Identifier: 
                14:72:8B:0E:4D:F3:69:C5:E7:3D:55:D2:4B:C4:19:B9:DD:D0:14:CB
            X509v3 Authority Key Identifier: 
                keyid:44:76:36:3D:67:08:B4:A3:EA:6B:F0:E2:91:CE:E1:03:67:4A:E5:43

    Signature Algorithm: sha1WithRSAEncryption
        42:bf:54:9b:80:74:c0:c8:62:d6:32:8b:f2:2c:42:73:8a:c6:
        b5:07:7a:97:d2:11:f8:84:14:bb:dc:c8:64:a2:b9:86:04:2c:
        3e:63:66:62:e8:3f:08:0f:b8:a1:32:25:4d:41:fc:40:2c:5e:
        f0:5f:55:36:36:9c:04:18:47:9e:6f:01:24:e4:12:31:8e:f3:
        a8:b1:1e:6f:41:a6:62:83:61:0d:2c:07:a1:28:7b:16:09:32:
        db:fc:ad:9c:a8:c9:c3:4f:92:3e:b2:7b:59:e7:3a:09:41:00:
        2b:bc:88:fa:e0:f7:09:60:8a:3a:e2:f4:20:da:8e:36:be:29:
        51:d7:33:3a:6b:f0:a5:9f:ec:51:04:e3:3b:c3:d8:0e:3c:c5:
        98:04:22:9c:18:a8:f4:1c:2a:6c:0d:b5:f1:52:72:db:44:fc:
        d8:42:2c:29:86:2f:ae:d4:2e:5f:f6:ad:e9:02:2d:b8:d9:68:
        f0:67:2f:f5:44:35:df:fd:3d:aa:f0:04:a0:9e:a3:d4:ac:73:
        26:ba:8e:76:01:d1:ef:61:de:2c:7e:9e:a2:72:75:78:6f:58:
        7f:38:86:61:1d:bb:79:07:d5:fe:18:4e:79:ec:64:e0:72:a8:
        f8:84:9c:c2:5b:a7:e8:11:a4:ec:8f:4e:ff:27:df:5e:38:e4:
        29:da:7c:50:47:1e:8a:fa:80:50:2a:02:cd:f1:ce:d2:a8:45:
        d2:e8:33:b0:7e:dc:a1:10:f4:00:34:27:4e:ce:fe:39:98:ab:
        26:9b:e9:41:2f:fd:f6:44:e2:dd:6c:bc:1c:1f:37:8f:bd:7a:
        a1:cd:3b:11:f1:15:f8:71:71:3f:d8:fe:a5:ba:2c:e5:ac:8c:
        88:7a:5f:2d:95:e5:26:a2:14:76:cb:e0:fc:62:4a:75:39:47:
        3d:af:aa:30:87:a0:d9:be:63:98:b2:00:dc:af:ff:22:34:70:
        05:1d:38:5c:4c:7b:8d:b2:72:bf:82:28:0d:fc:b2:e6:9a:e0:
        d9:4e:46:a5:f9:e9:24:94:2d:05:80:a6:9c:1a:56:bb:02:4a:
        a6:bf:9e:5a:15:88:cd:5f:c2:b1:2e:e3:14:e9:1b:d2:fe:bd:
        d1:5b:ac:68:21:c3:65:c1:80:6c:ee:de:b9:f8:36:b7:f1:87:
        a6:73:5b:5f:fa:c1:93:30:e4:de:ba:75:e6:05:52:b7:35:da:
        14:6b:08:0d:70:e2:16:c9:e4:09:85:bc:73:fa:90:04:25:8a:
        c4:c8:a1:8b:cd:99:0e:28:55:4e:13:b4:14:29:3d:46:18:77:
        25:e2:af:8f:56:0a:6b:9b:03:ba:0e:e8:ff:67:ba:d2:25:ca:
        6e:27:d6:dd:85:4c:e1:d7
-----BEGIN CERTIFICATE-----
MIIEeDCCAmCgAwIBAgIBAzANBgkqhkiG9w0BAQUFADCBlDELMAkGA1UEBhMCQkEx
GTAXBgNVBAgMEFJlcHVibGlrYSBTcnBza2ExFDASBgNVBAoMC09nbmplbiBJbmMu
MRgwFgYDVQQLDA9PZ25qZW4gUmVzZWFyY2gxFzAVBgNVBAMMDk9nbmplbiBLbGlu
Y292MSEwHwYJKoZIhvcNAQkBFhJvZ25qZW5rbEBnbWFpbC5jb20wHhcNMTYwNTIy
MjA0ODA3WhcNMTcwNTIyMjA0ODA3WjBxMQswCQYDVQQGEwJCQTEZMBcGA1UECAwQ
UmVwdWJsaWthIFNycHNrYTEUMBIGA1UECgwLT2duamVuIEluYy4xDjAMBgNVBAMM
BUlyZW5hMSEwHwYJKoZIhvcNAQkBFhJhbmVyaWNpdkBnbWFpbC5jb20wgZ8wDQYJ
KoZIhvcNAQEBBQADgY0AMIGJAoGBAKfLxS7FS6rI+QY2Gn9DxdqGmkC2igbKCbkm
kXgfgeW7g9Xn5BFpwLp7tf7FEFYZDRmSV0SXUnQLA4zblBqL4Ia6rHP6yLy3Dd0m
i8k4kH0nbTU1NEb9fc/KrZFwNsp0cDEEJTe+uU1pGG8ZXu+g+cKzNGrLGBbS+7yE
2BplsF8/AgMBAAGjezB5MAkGA1UdEwQCMAAwLAYJYIZIAYb4QgENBB8WHU9wZW5T
U0wgR2VuZXJhdGVkIENlcnRpZmljYXRlMB0GA1UdDgQWBBQUcosOTfNpxec9VdJL
xBm53dAUyzAfBgNVHSMEGDAWgBREdjY9Zwi0o+pr8OKRzuEDZ0rlQzANBgkqhkiG
9w0BAQUFAAOCAgEAQr9Um4B0wMhi1jKL8ixCc4rGtQd6l9IR+IQUu9zIZKK5hgQs
PmNmYug/CA+4oTIlTUH8QCxe8F9VNjacBBhHnm8BJOQSMY7zqLEeb0GmYoNhDSwH
oSh7Fgky2/ytnKjJw0+SPrJ7Wec6CUEAK7yI+uD3CWCKOuL0INqONr4pUdczOmvw
pZ/sUQTjO8PYDjzFmAQinBio9BwqbA218VJy20T82EIsKYYvrtQuX/at6QItuNlo
8Gcv9UQ13/09qvAEoJ6j1KxzJrqOdgHR72HeLH6eonJ1eG9YfziGYR27eQfV/hhO
eexk4HKo+IScwlun6BGk7I9O/yffXjjkKdp8UEceivqAUCoCzfHO0qhF0ugzsH7c
oRD0ADQnTs7+OZirJpvpQS/99kTi3Wy8HB83j716oc07EfEV+HFxP9j+pbos5ayM
iHpfLZXlJqIUdsvg/GJKdTlHPa+qMIeg2b5jmLIA3K//IjRwBR04XEx7jbJyv4Io
Dfyy5prg2U5GpfnpJJQtBYCmnBpWuwJKpr+eWhWIzV/CsS7jFOkb0v690VusaCHD
ZcGAbO7eufg2t/GHpnNbX/rBkzDk3rp15gVStzXaFGsIDXDiFsnkCYW8c/qQBCWK
xMihi82ZDihVThO0FCk9Rhh3JeKvj1YKa5sDug7o/2e60iXKbifW3YVM4dc=
-----END CERTIFICATE-----
